target datalayout = "e-m:e-p270:32:32-p271:32:32-p272:64:64-i64:64-i128:128-f80:128-n8:16:32:64-S128"
target triple = "x86_64-pc-linux-gnu"

%struct.wtap = type { ptr, ptr, i8, i32, i32, ptr, ptr, ptr, i32, ptr, ptr, ptr, ptr, ptr, ptr, ptr, ptr, ptr, ptr, i32, i32, ptr, ptr, ptr, ptr }

@camins_file_type_subtype = internal global i32 -1, align 4

; Function Attrs: null_pointer_is_valid sspstrong uwtable
define internal i32 @detect_camins_file(ptr noundef %0) #0 {
  %2 = alloca i32, align 4
  %3 = alloca ptr, align 8
  %4 = alloca i32, align 4
  %5 = alloca ptr, align 8
  %6 = alloca [2 x i8], align 1
  %7 = alloca i8, align 1
  %8 = alloca i8, align 1
  %9 = alloca i32, align 4
  %10 = alloca i32, align 4
  %11 = alloca i64, align 8
  %12 = alloca i32, align 4
  store ptr %0, ptr %3, align 8
  call void @llvm.lifetime.start.p0(i64 4, ptr %4) #8
  call void @llvm.lifetime.start.p0(i64 8, ptr %5) #8
  call void @llvm.lifetime.start.p0(i64 2, ptr %6) #8
  call void @llvm.lifetime.start.p0(i64 1, ptr %7) #8
  store i8 0, ptr %7, align 1
  call void @llvm.lifetime.start.p0(i64 1, ptr %8) #8
  store i8 0, ptr %8, align 1
  call void @llvm.lifetime.start.p0(i64 4, ptr %9) #8
  store i32 0, ptr %9, align 4
  call void @llvm.lifetime.start.p0(i64 4, ptr %10) #8
  store i32 0, ptr %10, align 4
  call void @llvm.lifetime.start.p0(i64 8, ptr %11) #8
  store i64 0, ptr %11, align 8
  br label %13

13:                                               ; preds = %76, %1
  %14 = load ptr, ptr %3, align 8
  %15 = getelementptr inbounds [2 x i8], ptr %6, i64 0, i64 0
  %16 = call zeroext i1 @wtap_read_bytes(ptr noundef %14, ptr noundef %15, i32 noundef 2, ptr noundef %4, ptr noundef %5)
  br i1 %16, label %17, label %77

17:                                               ; preds = %13
  %18 = load i8, ptr %7, align 1
  %19 = zext i8 %18 to i32
  %20 = icmp ne i32 %19, 0
  br i1 %20, label %21, label %42

21:                                               ; preds = %17
  %22 = getelementptr [2 x i8], ptr %6, i64 0, i64 1
  %23 = load i8, ptr %22, align 1
  %24 = zext i8 %23 to i32
  %25 = load i8, ptr %7, align 1
  %26 = zext i8 %25 to i32
  %27 = icmp eq i32 %24, %26
  br i1 %27, label %28, label %31

28:                                               ; preds = %21
  %29 = load i32, ptr %9, align 4
  %30 = add i32 %29, 1
  store i32 %30, ptr %9, align 4
  store i8 0, ptr %7, align 1
  br label %41

31:                                               ; preds = %21
  %32 = load i8, ptr %8, align 1
  %33 = add i8 %32, 1
  store i8 %33, ptr %8, align 1
  %34 = load i8, ptr %8, align 1
  %35 = zext i8 %34 to i32
  %36 = icmp sgt i32 %35, 5
  br i1 %36, label %37, label %40

37:                                               ; preds = %31
  %38 = load i32, ptr %10, align 4
  %39 = add i32 %38, 1
  store i32 %39, ptr %10, align 4
  store i8 0, ptr %7, align 1
  br label %40

40:                                               ; preds = %37, %31
  br label %41

41:                                               ; preds = %40, %28
  br label %70

42:                                               ; preds = %17
  %43 = getelementptr [2 x i8], ptr %6, i64 0, i64 1
  %44 = load i8, ptr %43, align 1
  %45 = zext i8 %44 to i32
  %46 = icmp eq i32 %45, 34
  br i1 %46, label %47, label %48

47:                                               ; preds = %42
  store i8 35, ptr %7, align 1
  store i8 0, ptr %8, align 1
  br label %69

48:                                               ; preds = %42
  %49 = getelementptr [2 x i8], ptr %6, i64 0, i64 1
  %50 = load i8, ptr %49, align 1
  %51 = zext i8 %50 to i32
  %52 = icmp eq i32 %51, 35
  br i1 %52, label %53, label %54

53:                                               ; preds = %48
  store i8 34, ptr %7, align 1
  store i8 0, ptr %8, align 1
  br label %68

54:                                               ; preds = %48
  %55 = getelementptr [2 x i8], ptr %6, i64 0, i64 1
  %56 = load i8, ptr %55, align 1
  %57 = zext i8 %56 to i32
  %58 = icmp eq i32 %57, 42
  br i1 %58, label %59, label %60

59:                                               ; preds = %54
  store i8 43, ptr %7, align 1
  store i8 0, ptr %8, align 1
  br label %67

60:                                               ; preds = %54
  %61 = getelementptr [2 x i8], ptr %6, i64 0, i64 1
  %62 = load i8, ptr %61, align 1
  %63 = zext i8 %62 to i32
  %64 = icmp eq i32 %63, 43
  br i1 %64, label %65, label %66

65:                                               ; preds = %60
  store i8 42, ptr %7, align 1
  store i8 0, ptr %8, align 1
  br label %66

66:                                               ; preds = %65, %60
  br label %67

67:                                               ; preds = %66, %59
  br label %68

68:                                               ; preds = %67, %53
  br label %69

69:                                               ; preds = %68, %47
  br label %70

70:                                               ; preds = %69, %41
  %71 = load i64, ptr %11, align 8
  %72 = add i64 %71, 2
  store i64 %72, ptr %11, align 8
  %73 = load i64, ptr %11, align 8
  %74 = icmp ugt i64 %73, 1073741823
  br i1 %74, label %75, label %76

75:                                               ; preds = %70
  store i32 0, ptr %4, align 4
  br label %77

76:                                               ; preds = %70
  br label %13, !llvm.loop !6

77:                                               ; preds = %75, %13
  %78 = load i32, ptr %4, align 4
  %79 = icmp ne i32 %78, 0
  br i1 %79, label %80, label %84

80:                                               ; preds = %77
  %81 = load i32, ptr %4, align 4
  %82 = icmp ne i32 %81, -12
  br i1 %82, label %83, label %84

83:                                               ; preds = %80
  store i32 -1, ptr %2, align 4
  store i32 1, ptr %12, align 4
  br label %91

84:                                               ; preds = %80, %77
  %85 = load i32, ptr %9, align 4
  %86 = load i32, ptr %10, align 4
  %87 = mul i32 10, %86
  %88 = icmp ugt i32 %85, %87
  br i1 %88, label %89, label %90

89:                                               ; preds = %84
  store i32 1, ptr %2, align 4
  store i32 1, ptr %12, align 4
  br label %91

90:                                               ; preds = %84
  store i32 0, ptr %2, align 4
  store i32 1, ptr %12, align 4
  br label %91

91:                                               ; preds = %90, %89, %83
  call void @llvm.lifetime.end.p0(i64 8, ptr %11) #8
  call void @llvm.lifetime.end.p0(i64 4, ptr %10) #8
  call void @llvm.lifetime.end.p0(i64 4, ptr %9) #8
  call void @llvm.lifetime.end.p0(i64 1, ptr %8) #8
  call void @llvm.lifetime.end.p0(i64 1, ptr %7) #8
  call void @llvm.lifetime.end.p0(i64 2, ptr %6) #8
  call void @llvm.lifetime.end.p0(i64 8, ptr %5) #8
  call void @llvm.lifetime.end.p0(i64 4, ptr %4) #8
  %92 = load i32, ptr %2, align 4
  ret i32 %92
}

; Function Attrs: null_pointer_is_valid sspstrong uwtable
define hidden i32 @camins_open(ptr noundef %0, ptr noundef %1, ptr noundef %2) #0 {
  %4 = alloca i32, align 4
  %5 = alloca ptr, align 8
  %6 = alloca ptr, align 8
  %7 = alloca ptr, align 8
  %8 = alloca i32, align 4
  %9 = alloca i32, align 4
  %10 = alloca i64, align 8
  %11 = alloca i64, align 8
  %12 = alloca ptr, align 8
  %13 = alloca ptr, align 8
  store ptr %0, ptr %5, align 8
  store ptr %1, ptr %6, align 8
  store ptr %2, ptr %7, align 8
  call void @llvm.lifetime.start.p0(i64 4, ptr %8) #8
  %14 = load ptr, ptr %5, align 8
  %15 = getelementptr inbounds nuw %struct.wtap, ptr %14, i32 0, i32 0
  %16 = load ptr, ptr %15, align 8
  %17 = call i32 @detect_camins_file(ptr noundef %16)
  store i32 %17, ptr %8, align 4
  %18 = load i32, ptr %8, align 4
  %19 = icmp ne i32 %18, 1
  br i1 %19, label %20, label %22

20:                                               ; preds = %3
  %21 = load i32, ptr %8, align 4
  store i32 %21, ptr %4, align 4
  store i32 1, ptr %9, align 4
  br label %77

22:                                               ; preds = %3
  %23 = load ptr, ptr %5, align 8
  %24 = getelementptr inbounds nuw %struct.wtap, ptr %23, i32 0, i32 0
  %25 = load ptr, ptr %24, align 8
  %26 = load ptr, ptr %6, align 8
  %27 = call i64 @file_seek(ptr noundef %25, i64 noundef 0, i32 noundef 0, ptr noundef %26)
  %28 = icmp eq i64 -1, %27
  br i1 %28, label %29, label %30

29:                                               ; preds = %22
  store i32 -1, ptr %4, align 4
  store i32 1, ptr %9, align 4
  br label %77

30:                                               ; preds = %22
  %31 = load ptr, ptr %5, align 8
  %32 = getelementptr inbounds nuw %struct.wtap, ptr %31, i32 0, i32 19
  store i32 132, ptr %32, align 8
  %33 = load ptr, ptr %5, align 8
  %34 = getelementptr inbounds nuw %struct.wtap, ptr %33, i32 0, i32 4
  store i32 0, ptr %34, align 8
  %35 = load ptr, ptr %5, align 8
  %36 = getelementptr inbounds nuw %struct.wtap, ptr %35, i32 0, i32 20
  store i32 6, ptr %36, align 4
  call void @llvm.lifetime.start.p0(i64 8, ptr %10) #8
  store i64 1, ptr %10, align 8
  call void @llvm.lifetime.start.p0(i64 8, ptr %11) #8
  store i64 8, ptr %11, align 8
  call void @llvm.lifetime.start.p0(i64 8, ptr %12) #8
  %37 = load i64, ptr %11, align 8
  %38 = icmp eq i64 %37, 1
  br i1 %38, label %39, label %42

39:                                               ; preds = %30
  %40 = load i64, ptr %10, align 8
  %41 = call noalias ptr @g_malloc0(i64 noundef %40) #9
  store ptr %41, ptr %12, align 8
  br label %63

42:                                               ; preds = %30
  %43 = load i64, ptr %10, align 8
  %44 = call i1 @llvm.is.constant.i64(i64 %43)
  br i1 %44, label %45, label %58

45:                                               ; preds = %42
  %46 = load i64, ptr %11, align 8
  %47 = icmp eq i64 %46, 0
  br i1 %47, label %53, label %48

48:                                               ; preds = %45
  %49 = load i64, ptr %10, align 8
  %50 = load i64, ptr %11, align 8
  %51 = udiv i64 -1, %50
  %52 = icmp ule i64 %49, %51
  br i1 %52, label %53, label %58

53:                                               ; preds = %48, %45
  %54 = load i64, ptr %10, align 8
  %55 = load i64, ptr %11, align 8
  %56 = mul i64 %54, %55
  %57 = call noalias ptr @g_malloc0(i64 noundef %56) #9
  store ptr %57, ptr %12, align 8
  br label %62

58:                                               ; preds = %48, %42
  %59 = load i64, ptr %10, align 8
  %60 = load i64, ptr %11, align 8
  %61 = call noalias ptr @g_malloc0_n(i64 noundef %59, i64 noundef %60) #10
  store ptr %61, ptr %12, align 8
  br label %62

62:                                               ; preds = %58, %53
  br label %63

63:                                               ; preds = %62, %39
  %64 = load ptr, ptr %12, align 8
  store ptr %64, ptr %13, align 8
  call void @llvm.lifetime.end.p0(i64 8, ptr %12) #8
  call void @llvm.lifetime.end.p0(i64 8, ptr %11) #8
  call void @llvm.lifetime.end.p0(i64 8, ptr %10) #8
  %65 = load ptr, ptr %13, align 8
  %66 = load ptr, ptr %5, align 8
  %67 = getelementptr inbounds nuw %struct.wtap, ptr %66, i32 0, i32 13
  store ptr %65, ptr %67, align 8
  %68 = load ptr, ptr %5, align 8
  %69 = getelementptr inbounds nuw %struct.wtap, ptr %68, i32 0, i32 15
  store ptr @camins_read, ptr %69, align 8
  %70 = load ptr, ptr %5, align 8
  %71 = getelementptr inbounds nuw %struct.wtap, ptr %70, i32 0, i32 16
  store ptr @camins_seek_read, ptr %71, align 8
  %72 = load i32, ptr @camins_file_type_subtype, align 4
  %73 = load ptr, ptr %5, align 8
  %74 = getelementptr inbounds nuw %struct.wtap, ptr %73, i32 0, i32 3
  store i32 %72, ptr %74, align 4
  %75 = load ptr, ptr %6, align 8
  store i32 0, ptr %75, align 4
  %76 = load ptr, ptr %5, align 8
  call void @wtap_add_generated_idb(ptr noundef %76)
  store i32 1, ptr %4, align 4
  store i32 1, ptr %9, align 4
  br label %77

77:                                               ; preds = %63, %29, %20
  call void @llvm.lifetime.end.p0(i64 4, ptr %8) #8
  %78 = load i32, ptr %4, align 4
  ret i32 %78
}