; Function Attrs: null_pointer_is_valid sspstrong uwtable
define hidden range(i32 -1, 2) i32 @camins_open(ptr noundef %0, ptr noundef %1, ptr noundef readnone captures(none) %2) local_unnamed_addr #0 {
  %4 = alloca i32, align 4
  %5 = alloca ptr, align 8
  %6 = alloca [2 x i8], align 1
  %7 = load ptr, ptr %0, align 8
  call void @llvm.lifetime.start.p0(i64 4, ptr nonnull %4) #4
  call void @llvm.lifetime.start.p0(i64 8, ptr nonnull %5) #4
  call void @llvm.lifetime.start.p0(i64 2, ptr nonnull %6) #4
  %8 = getelementptr inbounds nuw i8, ptr %6, i64 1
  br label %9

9:                                                ; preds = %25, %3
  %.018.i = phi i8 [ 0, %3 ], [ %.119.i, %25 ]
  %.016.i = phi i8 [ 0, %3 ], [ %.117.i, %25 ]
  %.013.i = phi i32 [ 0, %3 ], [ %.215.i, %25 ]
  %.012.i = phi i32 [ 0, %3 ], [ %.2.i, %25 ]
  %.0.i = phi i64 [ 0, %3 ], [ %26, %25 ]
  %10 = call zeroext i1 @wtap_read_bytes(ptr noundef %7, ptr noundef nonnull %6, i32 noundef 2, ptr noundef nonnull %4, ptr noundef nonnull %5)
  br i1 %10, label %11, label %28

11:                                               ; preds = %9
  %.not.i = icmp eq i8 %.018.i, 0
  %12 = load i8, ptr %8, align 1
  br i1 %.not.i, label %21, label %13

13:                                               ; preds = %11
  %14 = icmp eq i8 %12, %.018.i
  br i1 %14, label %15, label %17

15:                                               ; preds = %13
  %16 = add i32 %.013.i, 1
  br label %25

17:                                               ; preds = %13
  %18 = add i8 %.016.i, 1
  %19 = icmp ugt i8 %18, 5
  %spec.select.i = select i1 %19, i8 0, i8 %.018.i
  %20 = zext i1 %19 to i32
  %spec.select24.i = add i32 %.012.i, %20
  br label %25

21:                                               ; preds = %11
  switch i8 %12, label %.fold.split.i [
    i8 34, label %25
    i8 35, label %22
    i8 42, label %23
    i8 43, label %24
  ]

22:                                               ; preds = %21
  br label %25

23:                                               ; preds = %21
  br label %25

24:                                               ; preds = %21
  br label %25

.fold.split.i:                                    ; preds = %21
  br label %25

25:                                               ; preds = %.fold.split.i, %24, %23, %22, %21, %17, %15
  %.119.i = phi i8 [ 0, %15 ], [ 34, %22 ], [ 43, %23 ], [ 42, %24 ], [ %spec.select.i, %17 ], [ 35, %21 ], [ 0, %.fold.split.i ]
  %.117.i = phi i8 [ %.016.i, %15 ], [ 0, %22 ], [ 0, %23 ], [ 0, %24 ], [ %18, %17 ], [ 0, %21 ], [ %.016.i, %.fold.split.i ]
  %.215.i = phi i32 [ %16, %15 ], [ %.013.i, %22 ], [ %.013.i, %23 ], [ %.013.i, %24 ], [ %.013.i, %17 ], [ %.013.i, %21 ], [ %.013.i, %.fold.split.i ]
  %.2.i = phi i32 [ %.012.i, %15 ], [ %.012.i, %22 ], [ %.012.i, %23 ], [ %.012.i, %24 ], [ %spec.select24.i, %17 ], [ %.012.i, %21 ], [ %.012.i, %.fold.split.i ]
  %26 = add nuw nsw i64 %.0.i, 2
  %27 = icmp samesign ugt i64 %.0.i, 1073741821
  br i1 %27, label %detect_camins_file.exit, label %9, !llvm.loop !6

28:                                               ; preds = %9
  %.pr.i = load i32, ptr %4, align 4
  switch i32 %.pr.i, label %detect_camins_file.exit.thread [
    i32 -12, label %detect_camins_file.exit
    i32 0, label %detect_camins_file.exit
  ]

detect_camins_file.exit.thread:                   ; preds = %28
  call void @llvm.lifetime.end.p0(i64 2, ptr nonnull %6) #4
  call void @llvm.lifetime.end.p0(i64 8, ptr nonnull %5) #4
  call void @llvm.lifetime.end.p0(i64 4, ptr nonnull %4) #4
  br label %45

detect_camins_file.exit:                          ; preds = %25, %28, %28
  %.128.i = phi i32 [ %.012.i, %28 ], [ %.012.i, %28 ], [ %.2.i, %25 ]
  %.11427.i = phi i32 [ %.013.i, %28 ], [ %.013.i, %28 ], [ %.215.i, %25 ]
  %29 = mul i32 %.128.i, 10
  %30 = icmp ugt i32 %.11427.i, %29
  call void @llvm.lifetime.end.p0(i64 2, ptr nonnull %6) #4
  call void @llvm.lifetime.end.p0(i64 8, ptr nonnull %5) #4
  call void @llvm.lifetime.end.p0(i64 4, ptr nonnull %4) #4
  br i1 %30, label %31, label %45

31:                                               ; preds = %detect_camins_file.exit
  %32 = load ptr, ptr %0, align 8
  %33 = call i64 @file_seek(ptr noundef %32, i64 noundef 0, i32 noundef 0, ptr noundef %1)
  %34 = icmp eq i64 %33, -1
  br i1 %34, label %45, label %35

35:                                               ; preds = %31
  %36 = getelementptr inbounds nuw i8, ptr %0, i64 144
  store i32 132, ptr %36, align 8
  %37 = getelementptr inbounds nuw i8, ptr %0, i64 24
  store i32 0, ptr %37, align 8
  %38 = getelementptr inbounds nuw i8, ptr %0, i64 148
  store i32 6, ptr %38, align 4
  %39 = call noalias dereferenceable_or_null(8) ptr @g_malloc0(i64 noundef 8) #5
  %40 = getelementptr inbounds nuw i8, ptr %0, i64 96
  store ptr %39, ptr %40, align 8
  %41 = getelementptr inbounds nuw i8, ptr %0, i64 112
  store ptr @camins_read, ptr %41, align 8
  %42 = getelementptr inbounds nuw i8, ptr %0, i64 120
  store ptr @camins_seek_read, ptr %42, align 8
  %43 = load i32, ptr @camins_file_type_subtype, align 4
  %44 = getelementptr inbounds nuw i8, ptr %0, i64 20
  store i32 %43, ptr %44, align 4
  store i32 0, ptr %1, align 4
  call void @wtap_add_generated_idb(ptr noundef %0)
  br label %45

45:                                               ; preds = %detect_camins_file.exit.thread, %31, %detect_camins_file.exit, %35
  %.0 = phi i32 [ 1, %35 ], [ 0, %detect_camins_file.exit ], [ -1, %31 ], [ -1, %detect_camins_file.exit.thread ]
  ret i32 %.0
}